; Function Attrs: nounwind uwtable
define dso_local i32 @parser_errposition(ptr noundef readonly captures(address_is_null) %0, i32 noundef %1) local_unnamed_addr #0 {
  %3 = icmp slt i32 %1, 0
  %4 = icmp eq ptr %0, null
  %or.cond = or i1 %4, %3
  br i1 %or.cond, label %13, label %5

5:                                                ; preds = %2
  %6 = getelementptr inbounds nuw i8, ptr %0, i64 8
  %7 = load ptr, ptr %6, align 8
  %8 = icmp eq ptr %7, null
  br i1 %8, label %13, label %9

9:                                                ; preds = %5
  %10 = tail call i32 @pg_mbstrlen_with_len(ptr noundef nonnull %7, i32 noundef %1) #8
  %11 = add i32 %10, 1
  %12 = tail call i32 @errposition(i32 noundef %11) #8
  br label %13

13:                                               ; preds = %5, %2, %9
  %.0 = phi i32 [ %12, %9 ], [ 0, %2 ], [ 0, %5 ]
  ret i32 %.0
}